target datalayout = "e-m:e-p270:32:32-p271:32:32-p272:64:64-i64:64-i128:128-f80:128-n8:16:32:64-S128"
target triple = "x86_64-pc-linux-gnu"

%struct.PPFParam = type { i32, i16, i16 }

@ff_inverse = external constant [257 x i32], align 16
@ppf_gain_weight = internal constant [2 x i16] [i16 6144, i16 8192], align 2
@ff_sqrt_tab = external constant [256 x i8], align 16
@ff_log2_tab = external constant [256 x i8], align 16

; Function Attrs: alwaysinline nounwind willreturn memory(none) uwtable
define internal i32 @ff_log2_16bit_c(i32 noundef %0) #5 {
  %2 = alloca i32, align 4
  %3 = alloca i32, align 4
  store i32 %0, ptr %2, align 4, !tbaa !33
  call void @llvm.lifetime.start.p0(i64 4, ptr %3) #10
  store i32 0, ptr %3, align 4, !tbaa !33
  %4 = load i32, ptr %2, align 4, !tbaa !33
  %5 = and i32 %4, 65280
  %6 = icmp ne i32 %5, 0
  br i1 %6, label %7, label %12

7:                                                ; preds = %1
  %8 = load i32, ptr %2, align 4, !tbaa !33
  %9 = lshr i32 %8, 8
  store i32 %9, ptr %2, align 4, !tbaa !33
  %10 = load i32, ptr %3, align 4, !tbaa !33
  %11 = add nsw i32 %10, 8
  store i32 %11, ptr %3, align 4, !tbaa !33
  br label %12

12:                                               ; preds = %7, %1
  %13 = load i32, ptr %2, align 4, !tbaa !33
  %14 = zext i32 %13 to i64
  %15 = getelementptr inbounds nuw [256 x i8], ptr @ff_log2_tab, i64 0, i64 %14
  %16 = load i8, ptr %15, align 1, !tbaa !52
  %17 = zext i8 %16 to i32
  %18 = load i32, ptr %3, align 4, !tbaa !33
  %19 = add nsw i32 %18, %17
  store i32 %19, ptr %3, align 4, !tbaa !33
  %20 = load i32, ptr %3, align 4, !tbaa !33
  call void @llvm.lifetime.end.p0(i64 4, ptr %3) #10
  ret i32 %20
}

; Function Attrs: inlinehint nounwind willreturn memory(none) uwtable
define internal i32 @ff_sqrt(i32 noundef %0) #8 {
  %2 = alloca i32, align 4
  %3 = alloca i32, align 4
  %4 = alloca i32, align 4
  %5 = alloca i32, align 4
  %6 = alloca i32, align 4
  %7 = alloca i32, align 4
  store i32 %0, ptr %3, align 4, !tbaa !33
  call void @llvm.lifetime.start.p0(i64 4, ptr %4) #10
  %8 = load i32, ptr %3, align 4, !tbaa !33
  %9 = icmp ult i32 %8, 255
  br i1 %9, label %10, label %19

10:                                               ; preds = %1
  %11 = load i32, ptr %3, align 4, !tbaa !33
  %12 = add i32 %11, 1
  %13 = zext i32 %12 to i64
  %14 = getelementptr inbounds nuw [256 x i8], ptr @ff_sqrt_tab, i64 0, i64 %13
  %15 = load i8, ptr %14, align 1, !tbaa !52
  %16 = zext i8 %15 to i32
  %17 = sub nsw i32 %16, 1
  %18 = ashr i32 %17, 4
  store i32 %18, ptr %2, align 4
  store i32 1, ptr %5, align 4
  br label %94

19:                                               ; preds = %1
  %20 = load i32, ptr %3, align 4, !tbaa !33
  %21 = icmp ult i32 %20, 4096
  br i1 %21, label %22, label %30

22:                                               ; preds = %19
  %23 = load i32, ptr %3, align 4, !tbaa !33
  %24 = lshr i32 %23, 4
  %25 = zext i32 %24 to i64
  %26 = getelementptr inbounds nuw [256 x i8], ptr @ff_sqrt_tab, i64 0, i64 %25
  %27 = load i8, ptr %26, align 1, !tbaa !52
  %28 = zext i8 %27 to i32
  %29 = ashr i32 %28, 2
  store i32 %29, ptr %4, align 4, !tbaa !33
  br label %84

30:                                               ; preds = %19
  %31 = load i32, ptr %3, align 4, !tbaa !33
  %32 = icmp ult i32 %31, 16384
  br i1 %32, label %33, label %41

33:                                               ; preds = %30
  %34 = load i32, ptr %3, align 4, !tbaa !33
  %35 = lshr i32 %34, 6
  %36 = zext i32 %35 to i64
  %37 = getelementptr inbounds nuw [256 x i8], ptr @ff_sqrt_tab, i64 0, i64 %36
  %38 = load i8, ptr %37, align 1, !tbaa !52
  %39 = zext i8 %38 to i32
  %40 = ashr i32 %39, 1
  store i32 %40, ptr %4, align 4, !tbaa !33
  br label %83

41:                                               ; preds = %30
  %42 = load i32, ptr %3, align 4, !tbaa !33
  %43 = icmp ult i32 %42, 65536
  br i1 %43, label %44, label %51

44:                                               ; preds = %41
  %45 = load i32, ptr %3, align 4, !tbaa !33
  %46 = lshr i32 %45, 8
  %47 = zext i32 %46 to i64
  %48 = getelementptr inbounds nuw [256 x i8], ptr @ff_sqrt_tab, i64 0, i64 %47
  %49 = load i8, ptr %48, align 1, !tbaa !52
  %50 = zext i8 %49 to i32
  store i32 %50, ptr %4, align 4, !tbaa !33
  br label %82

51:                                               ; preds = %41
  call void @llvm.lifetime.start.p0(i64 4, ptr %6) #10
  %52 = load i32, ptr %3, align 4, !tbaa !33
  %53 = lshr i32 %52, 16
  %54 = call i32 @ff_log2_16bit_c(i32 noundef %53) #11
  %55 = ashr i32 %54, 1
  store i32 %55, ptr %6, align 4, !tbaa !33
  call void @llvm.lifetime.start.p0(i64 4, ptr %7) #10
  %56 = load i32, ptr %3, align 4, !tbaa !33
  %57 = load i32, ptr %6, align 4, !tbaa !33
  %58 = add nsw i32 %57, 2
  %59 = lshr i32 %56, %58
  store i32 %59, ptr %7, align 4, !tbaa !33
  %60 = load i32, ptr %7, align 4, !tbaa !33
  %61 = load i32, ptr %6, align 4, !tbaa !33
  %62 = add nsw i32 %61, 8
  %63 = lshr i32 %60, %62
  %64 = zext i32 %63 to i64
  %65 = getelementptr inbounds nuw [256 x i8], ptr @ff_sqrt_tab, i64 0, i64 %64
  %66 = load i8, ptr %65, align 1, !tbaa !52
  %67 = zext i8 %66 to i32
  store i32 %67, ptr %4, align 4, !tbaa !33
  %68 = load i32, ptr %7, align 4, !tbaa !33
  %69 = zext i32 %68 to i64
  %70 = load i32, ptr %4, align 4, !tbaa !33
  %71 = zext i32 %70 to i64
  %72 = getelementptr inbounds nuw [257 x i32], ptr @ff_inverse, i64 0, i64 %71
  %73 = load i32, ptr %72, align 4, !tbaa !33
  %74 = zext i32 %73 to i64
  %75 = mul i64 %69, %74
  %76 = lshr i64 %75, 32
  %77 = trunc i64 %76 to i32
  %78 = load i32, ptr %4, align 4, !tbaa !33
  %79 = load i32, ptr %6, align 4, !tbaa !33
  %80 = shl i32 %78, %79
  %81 = add i32 %77, %80
  store i32 %81, ptr %4, align 4, !tbaa !33
  call void @llvm.lifetime.end.p0(i64 4, ptr %7) #10
  call void @llvm.lifetime.end.p0(i64 4, ptr %6) #10
  br label %82

82:                                               ; preds = %51, %44
  br label %83

83:                                               ; preds = %82, %33
  br label %84

84:                                               ; preds = %83, %22
  br label %85

85:                                               ; preds = %84
  %86 = load i32, ptr %4, align 4, !tbaa !33
  %87 = load i32, ptr %3, align 4, !tbaa !33
  %88 = load i32, ptr %4, align 4, !tbaa !33
  %89 = load i32, ptr %4, align 4, !tbaa !33
  %90 = mul i32 %88, %89
  %91 = icmp ult i32 %87, %90
  %92 = zext i1 %91 to i32
  %93 = sub i32 %86, %92
  store i32 %93, ptr %2, align 4
  store i32 1, ptr %5, align 4
  br label %94

94:                                               ; preds = %85, %10
  call void @llvm.lifetime.end.p0(i64 4, ptr %4) #10
  %95 = load i32, ptr %2, align 4
  ret i32 %95
}

; Function Attrs: alwaysinline nounwind willreturn memory(none) uwtable
define internal i32 @av_clipl_int32_c(i64 noundef %0) #5 {
  %2 = alloca i32, align 4
  %3 = alloca i64, align 8
  store i64 %0, ptr %3, align 8, !tbaa !109
  %4 = load i64, ptr %3, align 8, !tbaa !109
  %5 = add i64 %4, 2147483648
  %6 = and i64 %5, -4294967296
  %7 = icmp ne i64 %6, 0
  br i1 %7, label %8, label %13

8:                                                ; preds = %1
  %9 = load i64, ptr %3, align 8, !tbaa !109
  %10 = ashr i64 %9, 63
  %11 = xor i64 %10, 2147483647
  %12 = trunc i64 %11 to i32
  store i32 %12, ptr %2, align 4
  br label %16

13:                                               ; preds = %1
  %14 = load i64, ptr %3, align 8, !tbaa !109
  %15 = trunc i64 %14 to i32
  store i32 %15, ptr %2, align 4
  br label %16

16:                                               ; preds = %13, %8
  %17 = load i32, ptr %2, align 4
  ret i32 %17
}

; Function Attrs: alwaysinline nounwind willreturn memory(none) uwtable
define internal signext i16 @av_clip_int16_c(i32 noundef %0) #5 {
  %2 = alloca i16, align 2
  %3 = alloca i32, align 4
  store i32 %0, ptr %3, align 4, !tbaa !33
  %4 = load i32, ptr %3, align 4, !tbaa !33
  %5 = add i32 %4, 32768
  %6 = and i32 %5, -65536
  %7 = icmp ne i32 %6, 0
  br i1 %7, label %8, label %13

8:                                                ; preds = %1
  %9 = load i32, ptr %3, align 4, !tbaa !33
  %10 = ashr i32 %9, 31
  %11 = xor i32 %10, 32767
  %12 = trunc i32 %11 to i16
  store i16 %12, ptr %2, align 2
  br label %16

13:                                               ; preds = %1
  %14 = load i32, ptr %3, align 4, !tbaa !33
  %15 = trunc i32 %14 to i16
  store i16 %15, ptr %2, align 2
  br label %16

16:                                               ; preds = %13, %8
  %17 = load i16, ptr %2, align 2
  ret i16 %17
}

; Function Attrs: nounwind uwtable
define internal signext i16 @square_root(i32 noundef %0) #1 {
  %2 = alloca i32, align 4
  store i32 %0, ptr %2, align 4, !tbaa !33
  %3 = load i32, ptr %2, align 4, !tbaa !33
  %4 = shl i32 %3, 1
  %5 = call i32 @ff_sqrt(i32 noundef %4) #11
  %6 = lshr i32 %5, 1
  %7 = and i32 %6, -2
  %8 = trunc i32 %7 to i16
  ret i16 %8
}

; Function Attrs: alwaysinline nounwind uwtable
define internal i32 @av_sat_add32_c(i32 noundef %0, i32 noundef %1) #9 {
  %3 = alloca i32, align 4
  %4 = alloca i32, align 4
  store i32 %0, ptr %3, align 4, !tbaa !33
  store i32 %1, ptr %4, align 4, !tbaa !33
  %5 = load i32, ptr %3, align 4, !tbaa !33
  %6 = sext i32 %5 to i64
  %7 = load i32, ptr %4, align 4, !tbaa !33
  %8 = sext i32 %7 to i64
  %9 = add nsw i64 %6, %8
  %10 = call i32 @av_clipl_int32_c(i64 noundef %9) #11
  ret i32 %10
}

; Function Attrs: nounwind uwtable
define internal void @comp_ppf_gains(i32 noundef %0, ptr noundef %1, i32 noundef %2, i32 noundef %3, i32 noundef %4, i32 noundef %5) #1 {
  %7 = alloca i32, align 4
  %8 = alloca ptr, align 8
  %9 = alloca i32, align 4
  %10 = alloca i32, align 4
  %11 = alloca i32, align 4
  %12 = alloca i32, align 4
  %13 = alloca i32, align 4
  %14 = alloca i32, align 4
  %15 = alloca i32, align 4
  store i32 %0, ptr %7, align 4, !tbaa !33
  store ptr %1, ptr %8, align 8, !tbaa !95
  store i32 %2, ptr %9, align 4, !tbaa !33
  store i32 %3, ptr %10, align 4, !tbaa !33
  store i32 %4, ptr %11, align 4, !tbaa !33
  store i32 %5, ptr %12, align 4, !tbaa !33
  call void @llvm.lifetime.start.p0(i64 4, ptr %13) #10
  call void @llvm.lifetime.start.p0(i64 4, ptr %14) #10
  call void @llvm.lifetime.start.p0(i64 4, ptr %15) #10
  %16 = load i32, ptr %7, align 4, !tbaa !33
  %17 = load ptr, ptr %8, align 8, !tbaa !95
  %18 = getelementptr inbounds nuw %struct.PPFParam, ptr %17, i32 0, i32 0
  store i32 %16, ptr %18, align 4, !tbaa !73
  %19 = load i32, ptr %10, align 4, !tbaa !33
  %20 = load i32, ptr %12, align 4, !tbaa !33
  %21 = mul nsw i32 %19, %20
  %22 = ashr i32 %21, 1
  store i32 %22, ptr %14, align 4, !tbaa !33
  %23 = load i32, ptr %11, align 4, !tbaa !33
  %24 = load i32, ptr %11, align 4, !tbaa !33
  %25 = mul nsw i32 %23, %24
  %26 = shl i32 %25, 1
  store i32 %26, ptr %15, align 4, !tbaa !33
  %27 = load i32, ptr %15, align 4, !tbaa !33
  %28 = load i32, ptr %14, align 4, !tbaa !33
  %29 = icmp sgt i32 %27, %28
  br i1 %29, label %30, label %100

30:                                               ; preds = %6
  %31 = load i32, ptr %11, align 4, !tbaa !33
  %32 = load i32, ptr %12, align 4, !tbaa !33
  %33 = icmp sge i32 %31, %32
  br i1 %33, label %34, label %41

34:                                               ; preds = %30
  %35 = load i32, ptr %9, align 4, !tbaa !33
  %36 = zext i32 %35 to i64
  %37 = getelementptr inbounds nuw [2 x i16], ptr @ppf_gain_weight, i64 0, i64 %36
  %38 = load i16, ptr %37, align 2, !tbaa !64
  %39 = load ptr, ptr %8, align 8, !tbaa !95
  %40 = getelementptr inbounds nuw %struct.PPFParam, ptr %39, i32 0, i32 1
  store i16 %38, ptr %40, align 4, !tbaa !76
  br label %56

41:                                               ; preds = %30
  %42 = load i32, ptr %11, align 4, !tbaa !33
  %43 = shl i32 %42, 15
  %44 = load i32, ptr %12, align 4, !tbaa !33
  %45 = sdiv i32 %43, %44
  %46 = load i32, ptr %9, align 4, !tbaa !33
  %47 = zext i32 %46 to i64
  %48 = getelementptr inbounds nuw [2 x i16], ptr @ppf_gain_weight, i64 0, i64 %47
  %49 = load i16, ptr %48, align 2, !tbaa !64
  %50 = sext i16 %49 to i32
  %51 = mul nsw i32 %45, %50
  %52 = ashr i32 %51, 15
  %53 = trunc i32 %52 to i16
  %54 = load ptr, ptr %8, align 8, !tbaa !95
  %55 = getelementptr inbounds nuw %struct.PPFParam, ptr %54, i32 0, i32 1
  store i16 %53, ptr %55, align 4, !tbaa !76
  br label %56

56:                                               ; preds = %41, %34
  %57 = load i32, ptr %10, align 4, !tbaa !33
  %58 = shl i32 %57, 15
  %59 = load i32, ptr %11, align 4, !tbaa !33
  %60 = load ptr, ptr %8, align 8, !tbaa !95
  %61 = getelementptr inbounds nuw %struct.PPFParam, ptr %60, i32 0, i32 1
  %62 = load i16, ptr %61, align 4, !tbaa !76
  %63 = sext i16 %62 to i32
  %64 = mul nsw i32 %59, %63
  %65 = shl i32 %64, 1
  %66 = add nsw i32 %58, %65
  store i32 %66, ptr %14, align 4, !tbaa !33
  %67 = load ptr, ptr %8, align 8, !tbaa !95
  %68 = getelementptr inbounds nuw %struct.PPFParam, ptr %67, i32 0, i32 1
  %69 = load i16, ptr %68, align 4, !tbaa !76
  %70 = sext i16 %69 to i32
  %71 = load ptr, ptr %8, align 8, !tbaa !95
  %72 = getelementptr inbounds nuw %struct.PPFParam, ptr %71, i32 0, i32 1
  %73 = load i16, ptr %72, align 4, !tbaa !76
  %74 = sext i16 %73 to i32
  %75 = mul nsw i32 %70, %74
  %76 = ashr i32 %75, 15
  %77 = load i32, ptr %12, align 4, !tbaa !33
  %78 = mul nsw i32 %76, %77
  store i32 %78, ptr %15, align 4, !tbaa !33
  %79 = load i32, ptr %14, align 4, !tbaa !33
  %80 = load i32, ptr %15, align 4, !tbaa !33
  %81 = add nsw i32 %80, 32768
  %82 = call i32 @av_sat_add32_c(i32 noundef %79, i32 noundef %81)
  %83 = ashr i32 %82, 16
  store i32 %83, ptr %13, align 4, !tbaa !33
  %84 = load i32, ptr %10, align 4, !tbaa !33
  %85 = load i32, ptr %13, align 4, !tbaa !33
  %86 = shl i32 %85, 1
  %87 = icmp sge i32 %84, %86
  br i1 %87, label %88, label %89

88:                                               ; preds = %56
  store i32 32767, ptr %14, align 4, !tbaa !33
  br label %94

89:                                               ; preds = %56
  %90 = load i32, ptr %10, align 4, !tbaa !33
  %91 = shl i32 %90, 14
  %92 = load i32, ptr %13, align 4, !tbaa !33
  %93 = sdiv i32 %91, %92
  store i32 %93, ptr %14, align 4, !tbaa !33
  br label %94

94:                                               ; preds = %89, %88
  %95 = load i32, ptr %14, align 4, !tbaa !33
  %96 = shl i32 %95, 16
  %97 = call signext i16 @square_root(i32 noundef %96)
  %98 = load ptr, ptr %8, align 8, !tbaa !95
  %99 = getelementptr inbounds nuw %struct.PPFParam, ptr %98, i32 0, i32 2
  store i16 %97, ptr %99, align 2, !tbaa !75
  br label %105

100:                                              ; preds = %6
  %101 = load ptr, ptr %8, align 8, !tbaa !95
  %102 = getelementptr inbounds nuw %struct.PPFParam, ptr %101, i32 0, i32 1
  store i16 0, ptr %102, align 4, !tbaa !76
  %103 = load ptr, ptr %8, align 8, !tbaa !95
  %104 = getelementptr inbounds nuw %struct.PPFParam, ptr %103, i32 0, i32 2
  store i16 32767, ptr %104, align 2, !tbaa !75
  br label %105

105:                                              ; preds = %100, %94
  %106 = load ptr, ptr %8, align 8, !tbaa !95
  %107 = getelementptr inbounds nuw %struct.PPFParam, ptr %106, i32 0, i32 1
  %108 = load i16, ptr %107, align 4, !tbaa !76
  %109 = sext i16 %108 to i32
  %110 = load ptr, ptr %8, align 8, !tbaa !95
  %111 = getelementptr inbounds nuw %struct.PPFParam, ptr %110, i32 0, i32 2
  %112 = load i16, ptr %111, align 2, !tbaa !75
  %113 = sext i16 %112 to i32
  %114 = mul nsw i32 %109, %113
  %115 = ashr i32 %114, 15
  %116 = call signext i16 @av_clip_int16_c(i32 noundef %115) #11
  %117 = load ptr, ptr %8, align 8, !tbaa !95
  %118 = getelementptr inbounds nuw %struct.PPFParam, ptr %117, i32 0, i32 1
  store i16 %116, ptr %118, align 4, !tbaa !76
  call void @llvm.lifetime.end.p0(i64 4, ptr %15) #10
  call void @llvm.lifetime.end.p0(i64 4, ptr %14) #10
  call void @llvm.lifetime.end.p0(i64 4, ptr %13) #10
  ret void
}