; Function Attrs: mustprogress nofree norecurse nosync nounwind willreturn memory(argmem: write) uwtable
define internal fastcc void @comp_ppf_gains(i32 noundef %0, ptr noundef nonnull writeonly captures(none) initializes((0, 8)) %1, i32 noundef %2, i32 noundef %3, i32 noundef %4, i32 noundef %5) unnamed_addr #6 {
  store i32 %0, ptr %1, align 4, !tbaa !71
  %7 = mul nsw i32 %5, %3
  %8 = ashr i32 %7, 1
  %9 = shl i32 %4, 1
  %10 = mul i32 %9, %4
  %11 = icmp sgt i32 %10, %8
  br i1 %11, label %12, label %85

12:                                               ; preds = %6
  %.not = icmp slt i32 %4, %5
  br i1 %.not, label %17, label %13

13:                                               ; preds = %12
  %14 = zext i32 %2 to i64
  %15 = getelementptr inbounds nuw [2 x i16], ptr @ppf_gain_weight, i64 0, i64 %14
  %16 = load i16, ptr %15, align 2, !tbaa !60
  br label %27

17:                                               ; preds = %12
  %18 = shl i32 %4, 15
  %19 = sdiv i32 %18, %5
  %20 = zext i32 %2 to i64
  %21 = getelementptr inbounds nuw [2 x i16], ptr @ppf_gain_weight, i64 0, i64 %20
  %22 = load i16, ptr %21, align 2, !tbaa !60
  %23 = sext i16 %22 to i32
  %24 = mul nsw i32 %19, %23
  %25 = lshr i32 %24, 15
  %26 = trunc i32 %25 to i16
  br label %27

27:                                               ; preds = %17, %13
  %.sink = phi i16 [ %26, %17 ], [ %16, %13 ]
  %28 = shl i32 %3, 15
  %29 = sext i16 %.sink to i32
  %30 = mul i32 %9, %29
  %31 = add nsw i32 %30, %28
  %32 = mul nsw i32 %29, %29
  %33 = lshr i32 %32, 15
  %34 = mul nsw i32 %33, %5
  %35 = add nsw i32 %34, 32768
  %36 = tail call i32 @llvm.sadd.sat.i32(i32 %31, i32 %35)
  %37 = ashr i32 %36, 16
  %38 = shl nsw i32 %37, 1
  %.not37 = icmp slt i32 %3, %38
  br i1 %.not37, label %39, label %.thread43

39:                                               ; preds = %27
  %40 = shl i32 %3, 14
  %41 = sdiv i32 %40, %37
  %42 = shl i32 %41, 17
  %43 = icmp eq i32 %42, 0
  br i1 %43, label %44, label %.thread43

44:                                               ; preds = %39
  %45 = load i8, ptr getelementptr inbounds nuw (i8, ptr @ff_sqrt_tab, i64 1), align 1, !tbaa !39
  %46 = zext i8 %45 to i32
  %47 = add nsw i32 %46, -1
  %48 = ashr i32 %47, 4
  br label %square_root.exit

.thread43:                                        ; preds = %39, %27
  %49 = phi i32 [ -131072, %27 ], [ %42, %39 ]
  %.not.i.i.i = icmp ult i32 %49, 16777216
  %spec.select.i.v.i.i = select i1 %.not.i.i.i, i32 16, i32 24
  %spec.select.i.i.i = lshr i32 %49, %spec.select.i.v.i.i
  %spec.select7.i.i.i = select i1 %.not.i.i.i, i32 0, i32 8
  %50 = zext nneg i32 %spec.select.i.i.i to i64
  %51 = getelementptr inbounds nuw [256 x i8], ptr @ff_log2_tab, i64 0, i64 %50
  %52 = load i8, ptr %51, align 1, !tbaa !39
  %53 = zext i8 %52 to i32
  %54 = add nuw nsw i32 %spec.select7.i.i.i, %53
  %55 = lshr i32 %54, 1
  %56 = add nuw nsw i32 %55, 2
  %57 = lshr i32 %49, %56
  %58 = add nuw nsw i32 %55, 8
  %59 = lshr i32 %57, %58
  %60 = zext nneg i32 %59 to i64
  %61 = getelementptr inbounds nuw [256 x i8], ptr @ff_sqrt_tab, i64 0, i64 %60
  %62 = load i8, ptr %61, align 1, !tbaa !39
  %63 = zext i8 %62 to i32
  %64 = zext nneg i32 %57 to i64
  %65 = zext i8 %62 to i64
  %66 = getelementptr inbounds nuw [257 x i32], ptr @ff_inverse, i64 0, i64 %65
  %67 = load i32, ptr %66, align 4, !tbaa !47
  %68 = zext i32 %67 to i64
  %69 = mul nuw nsw i64 %64, %68
  %70 = lshr i64 %69, 32
  %71 = trunc nuw nsw i64 %70 to i32
  %72 = shl i32 %63, %55
  %73 = add i32 %72, %71
  %74 = mul i32 %73, %73
  %75 = icmp ult i32 %49, %74
  %.neg.i.i = sext i1 %75 to i32
  %76 = add i32 %73, %.neg.i.i
  br label %square_root.exit

square_root.exit:                                 ; preds = %44, %.thread43
  %.0.i.i = phi i32 [ %48, %44 ], [ %76, %.thread43 ]
  %77 = lshr i32 %.0.i.i, 1
  %78 = trunc i32 %77 to i16
  %79 = and i16 %78, -2
  %80 = getelementptr inbounds nuw i8, ptr %1, i64 6
  store i16 %79, ptr %80, align 2, !tbaa !74
  %81 = sext i16 %.sink to i32
  %82 = sext i16 %79 to i32
  %83 = mul nsw i32 %82, %81
  %84 = ashr i32 %83, 15
  br label %87

85:                                               ; preds = %6
  %86 = getelementptr inbounds nuw i8, ptr %1, i64 6
  store i16 32767, ptr %86, align 2, !tbaa !74
  br label %87

87:                                               ; preds = %85, %square_root.exit
  %88 = phi i32 [ 0, %85 ], [ %84, %square_root.exit ]
  %89 = getelementptr inbounds nuw i8, ptr %1, i64 4
  %90 = tail call i32 @llvm.smin.i32(i32 %88, i32 32767)
  %.0.i = trunc nsw i32 %90 to i16
  store i16 %.0.i, ptr %89, align 4, !tbaa !73
  ret void
}